; Function Attrs: nounwind uwtable
define range(i32 0, 2) i32 @SSL_CTX_use_PrivateKey(ptr noundef %0, ptr noundef %1) local_unnamed_addr #0 {
  %3 = icmp eq ptr %1, null
  br i1 %3, label %4, label %5

4:                                                ; preds = %2
  tail call void @ERR_new() #6
  tail call void @ERR_set_debug(ptr noundef nonnull @.str, i32 noundef 383, ptr noundef nonnull @__func__.SSL_CTX_use_PrivateKey) #6
  tail call void (i32, i32, ptr, ...) @ERR_set_error(i32 noundef 20, i32 noundef 786690, ptr noundef null) #6
  br label %9

5:                                                ; preds = %2
  %6 = getelementptr inbounds nuw i8, ptr %0, i64 344
  %7 = load ptr, ptr %6, align 8, !tbaa !100
  %8 = tail call fastcc i32 @ssl_set_pkey(ptr noundef %7, ptr noundef %1, ptr noundef %0)
  br label %9

9:                                                ; preds = %5, %4
  %.0 = phi i32 [ 0, %4 ], [ %8, %5 ]
  ret i32 %.0
}